target datalayout = "e-m:e-p270:32:32-p271:32:32-p272:64:64-i64:64-i128:128-f80:128-n8:16:32:64-S128"
target triple = "x86_64-pc-linux-gnu"

@.str.4 = private unnamed_addr constant [2 x i8] c"0\00", align 1
@.str.7 = private unnamed_addr constant [42 x i8] c"multidimensional arrays are not supported\00", align 1
@.str.8 = private unnamed_addr constant [75 x i8] c"multilevel pointers (more than 2 levels) are not supported; found %d level\00", align 1
@.str.9 = private unnamed_addr constant [76 x i8] c"multilevel pointers (more than 2 levels) are not supported; found %d levels\00", align 1
@.str.10 = private unnamed_addr constant [55 x i8] c"pointer to pointer is not supported for this data type\00", align 1
@.str.11 = private unnamed_addr constant [57 x i8] c"multidimensional arrays for structures are not supported\00", align 1
@.str.12 = private unnamed_addr constant [3 x i8] c"-1\00", align 1
@.str.13 = private unnamed_addr constant [2 x i8] c"1\00", align 1
@.str.14 = private unnamed_addr constant [64 x i8] c"multidimensional arrays for simple data types are not supported\00", align 1

; Function Attrs: inlinehint nounwind willreturn memory(read) uwtable
define available_externally i32 @atoi(ptr noundef nonnull %0) #6 {
  %2 = alloca ptr, align 8
  store ptr %0, ptr %2, align 8
  %3 = load ptr, ptr %2, align 8
  %4 = call i64 @strtol(ptr noundef %3, ptr noundef null, i32 noundef 10) #7
  %5 = trunc i64 %4 to i32
  ret i32 %5
}

; Function Attrs: nounwind uwtable
define dso_local void @adjust_array(i32 noundef %0, ptr noundef %1, ptr noundef %2, ptr noundef %3, ptr noundef %4, i32 noundef %5, i1 noundef zeroext %6) #0 {
  %8 = alloca i32, align 4
  %9 = alloca ptr, align 8
  %10 = alloca ptr, align 8
  %11 = alloca ptr, align 8
  %12 = alloca ptr, align 8
  %13 = alloca i32, align 4
  %14 = alloca i8, align 1
  store i32 %0, ptr %8, align 4
  store ptr %1, ptr %9, align 8
  store ptr %2, ptr %10, align 8
  store ptr %3, ptr %11, align 8
  store ptr %4, ptr %12, align 8
  store i32 %5, ptr %13, align 4
  %15 = zext i1 %6 to i8
  store i8 %15, ptr %14, align 1
  %16 = load ptr, ptr %12, align 8
  %17 = call i32 @atoi(ptr noundef %16) #8
  %18 = icmp sge i32 %17, 0
  br i1 %18, label %19, label %28

19:                                               ; preds = %7
  %20 = load ptr, ptr %10, align 8
  %21 = load ptr, ptr %20, align 8
  %22 = call i32 @atoi(ptr noundef %21) #8
  %23 = icmp sge i32 %22, 0
  br i1 %23, label %24, label %25

24:                                               ; preds = %19
  call void (i32, ptr, ...) @mmfatal(i32 noundef 3, ptr noundef @.str.7) #9
  unreachable

25:                                               ; preds = %19
  %26 = load ptr, ptr %12, align 8
  %27 = load ptr, ptr %10, align 8
  store ptr %26, ptr %27, align 8
  br label %28

28:                                               ; preds = %25, %7
  %29 = load ptr, ptr %11, align 8
  %30 = call i32 @atoi(ptr noundef %29) #8
  %31 = icmp sge i32 %30, 0
  br i1 %31, label %32, label %55

32:                                               ; preds = %28
  %33 = load ptr, ptr %9, align 8
  %34 = load ptr, ptr %33, align 8
  %35 = call i32 @atoi(ptr noundef %34) #8
  %36 = icmp sge i32 %35, 0
  br i1 %36, label %37, label %43

37:                                               ; preds = %32
  %38 = load ptr, ptr %10, align 8
  %39 = load ptr, ptr %38, align 8
  %40 = call i32 @atoi(ptr noundef %39) #8
  %41 = icmp sge i32 %40, 0
  br i1 %41, label %42, label %43

42:                                               ; preds = %37
  call void (i32, ptr, ...) @mmfatal(i32 noundef 3, ptr noundef @.str.7) #9
  unreachable

43:                                               ; preds = %37, %32
  %44 = load ptr, ptr %9, align 8
  %45 = load ptr, ptr %44, align 8
  %46 = call i32 @atoi(ptr noundef %45) #8
  %47 = icmp sge i32 %46, 0
  br i1 %47, label %48, label %52

48:                                               ; preds = %43
  %49 = load ptr, ptr %9, align 8
  %50 = load ptr, ptr %49, align 8
  %51 = load ptr, ptr %10, align 8
  store ptr %50, ptr %51, align 8
  br label %52

52:                                               ; preds = %48, %43
  %53 = load ptr, ptr %11, align 8
  %54 = load ptr, ptr %9, align 8
  store ptr %53, ptr %54, align 8
  br label %55

55:                                               ; preds = %52, %28
  %56 = load i32, ptr %13, align 4
  %57 = icmp sgt i32 %56, 2
  br i1 %57, label %58, label %63

58:                                               ; preds = %55
  %59 = load i32, ptr %13, align 4
  %60 = icmp eq i32 %59, 1
  %61 = select i1 %60, ptr @.str.8, ptr @.str.9
  %62 = load i32, ptr %13, align 4
  call void (i32, ptr, ...) @mmfatal(i32 noundef 3, ptr noundef %61, i32 noundef %62) #9
  unreachable

63:                                               ; preds = %55
  %64 = load i32, ptr %13, align 4
  %65 = icmp sgt i32 %64, 1
  br i1 %65, label %66, label %76

66:                                               ; preds = %63
  %67 = load i32, ptr %8, align 4
  %68 = icmp ne i32 %67, 1
  br i1 %68, label %69, label %76

69:                                               ; preds = %66
  %70 = load i32, ptr %8, align 4
  %71 = icmp ne i32 %70, 2
  br i1 %71, label %72, label %76

72:                                               ; preds = %69
  %73 = load i32, ptr %8, align 4
  %74 = icmp ne i32 %73, 30
  br i1 %74, label %75, label %76

75:                                               ; preds = %72
  call void (i32, ptr, ...) @mmfatal(i32 noundef 3, ptr noundef @.str.10) #9
  unreachable

76:                                               ; preds = %72, %69, %66, %63
  %77 = load i32, ptr %13, align 4
  %78 = icmp sgt i32 %77, 1
  br i1 %78, label %79, label %90

79:                                               ; preds = %76
  %80 = load ptr, ptr %10, align 8
  %81 = load ptr, ptr %80, align 8
  %82 = call i32 @atoi(ptr noundef %81) #8
  %83 = icmp sge i32 %82, 0
  br i1 %83, label %89, label %84

84:                                               ; preds = %79
  %85 = load ptr, ptr %9, align 8
  %86 = load ptr, ptr %85, align 8
  %87 = call i32 @atoi(ptr noundef %86) #8
  %88 = icmp sge i32 %87, 0
  br i1 %88, label %89, label %90

89:                                               ; preds = %84, %79
  call void (i32, ptr, ...) @mmfatal(i32 noundef 3, ptr noundef @.str.7) #9
  unreachable

90:                                               ; preds = %84, %76
  %91 = load ptr, ptr %10, align 8
  %92 = load ptr, ptr %91, align 8
  %93 = call i32 @atoi(ptr noundef %92) #8
  %94 = icmp sge i32 %93, 0
  br i1 %94, label %95, label %104

95:                                               ; preds = %90
  %96 = load ptr, ptr %9, align 8
  %97 = load ptr, ptr %96, align 8
  %98 = call i32 @atoi(ptr noundef %97) #8
  %99 = icmp sge i32 %98, 0
  br i1 %99, label %100, label %104

100:                                              ; preds = %95
  %101 = load i32, ptr %13, align 4
  %102 = icmp ne i32 %101, 0
  br i1 %102, label %103, label %104

103:                                              ; preds = %100
  call void (i32, ptr, ...) @mmfatal(i32 noundef 3, ptr noundef @.str.7) #9
  unreachable

104:                                              ; preds = %100, %95, %90
  %105 = load i32, ptr %8, align 4
  switch i32 %105, label %178 [
    i32 22, label %106
    i32 23, label %106
    i32 14, label %121
    i32 32, label %121
    i32 1, label %137
    i32 2, label %137
    i32 30, label %137
  ]

106:                                              ; preds = %104, %104
  %107 = load i32, ptr %13, align 4
  %108 = icmp ne i32 %107, 0
  br i1 %108, label %109, label %114

109:                                              ; preds = %106
  %110 = load ptr, ptr %9, align 8
  %111 = load ptr, ptr %110, align 8
  %112 = load ptr, ptr %10, align 8
  store ptr %111, ptr %112, align 8
  %113 = load ptr, ptr %9, align 8
  store ptr @.str.4, ptr %113, align 8
  br label %114

114:                                              ; preds = %109, %106
  %115 = load ptr, ptr %10, align 8
  %116 = load ptr, ptr %115, align 8
  %117 = call i32 @atoi(ptr noundef %116) #8
  %118 = icmp sge i32 %117, 0
  br i1 %118, label %119, label %120

119:                                              ; preds = %114
  call void (i32, ptr, ...) @mmfatal(i32 noundef 3, ptr noundef @.str.11) #9
  unreachable

120:                                              ; preds = %114
  br label %193

121:                                              ; preds = %104, %104
  %122 = load i32, ptr %13, align 4
  %123 = icmp ne i32 %122, 0
  br i1 %123, label %124, label %126

124:                                              ; preds = %121
  %125 = load ptr, ptr %9, align 8
  store ptr @.str.4, ptr %125, align 8
  br label %126

126:                                              ; preds = %124, %121
  %127 = load ptr, ptr %10, align 8
  %128 = load ptr, ptr %127, align 8
  %129 = call i32 @atoi(ptr noundef %128) #8
  %130 = icmp slt i32 %129, 0
  br i1 %130, label %131, label %136

131:                                              ; preds = %126
  %132 = load ptr, ptr %9, align 8
  %133 = load ptr, ptr %132, align 8
  %134 = load ptr, ptr %10, align 8
  store ptr %133, ptr %134, align 8
  %135 = load ptr, ptr %9, align 8
  store ptr @.str.12, ptr %135, align 8
  br label %136

136:                                              ; preds = %131, %126
  br label %193

137:                                              ; preds = %104, %104, %104
  %138 = load i32, ptr %13, align 4
  %139 = icmp eq i32 %138, 2
  br i1 %139, label %140, label %143

140:                                              ; preds = %137
  %141 = load ptr, ptr %9, align 8
  store ptr @.str.4, ptr %141, align 8
  %142 = load ptr, ptr %10, align 8
  store ptr @.str.4, ptr %142, align 8
  br label %193

143:                                              ; preds = %137
  %144 = load i32, ptr %13, align 4
  %145 = icmp eq i32 %144, 1
  br i1 %145, label %146, label %148

146:                                              ; preds = %143
  %147 = load ptr, ptr %10, align 8
  store ptr @.str.4, ptr %147, align 8
  br label %148

148:                                              ; preds = %146, %143
  %149 = load ptr, ptr %10, align 8
  %150 = load ptr, ptr %149, align 8
  %151 = call i32 @atoi(ptr noundef %150) #8
  %152 = icmp slt i32 %151, 0
  br i1 %152, label %153, label %177

153:                                              ; preds = %148
  %154 = load ptr, ptr %9, align 8
  %155 = load ptr, ptr %154, align 8
  %156 = call i32 @atoi(ptr noundef %155) #8
  %157 = icmp slt i32 %156, 0
  br i1 %157, label %158, label %163

158:                                              ; preds = %153
  %159 = load i8, ptr %14, align 1, !range !16, !noundef !17
  %160 = trunc i8 %159 to i1
  br i1 %160, label %163, label %161

161:                                              ; preds = %158
  %162 = load ptr, ptr %10, align 8
  store ptr @.str.13, ptr %162, align 8
  br label %175

163:                                              ; preds = %158, %153
  %164 = load ptr, ptr %9, align 8
  %165 = load ptr, ptr %164, align 8
  %166 = call i32 @strcmp(ptr noundef %165, ptr noundef @.str.4) #8
  %167 = icmp eq i32 %166, 0
  br i1 %167, label %168, label %170

168:                                              ; preds = %163
  %169 = load ptr, ptr %10, align 8
  store ptr @.str.12, ptr %169, align 8
  br label %174

170:                                              ; preds = %163
  %171 = load ptr, ptr %9, align 8
  %172 = load ptr, ptr %171, align 8
  %173 = load ptr, ptr %10, align 8
  store ptr %172, ptr %173, align 8
  br label %174

174:                                              ; preds = %170, %168
  br label %175

175:                                              ; preds = %174, %161
  %176 = load ptr, ptr %9, align 8
  store ptr @.str.12, ptr %176, align 8
  br label %177

177:                                              ; preds = %175, %148
  br label %193

178:                                              ; preds = %104
  %179 = load i32, ptr %13, align 4
  %180 = icmp ne i32 %179, 0
  br i1 %180, label %181, label %186

181:                                              ; preds = %178
  %182 = load ptr, ptr %9, align 8
  %183 = load ptr, ptr %182, align 8
  %184 = load ptr, ptr %10, align 8
  store ptr %183, ptr %184, align 8
  %185 = load ptr, ptr %9, align 8
  store ptr @.str.4, ptr %185, align 8
  br label %186

186:                                              ; preds = %181, %178
  %187 = load ptr, ptr %10, align 8
  %188 = load ptr, ptr %187, align 8
  %189 = call i32 @atoi(ptr noundef %188) #8
  %190 = icmp sge i32 %189, 0
  br i1 %190, label %191, label %192

191:                                              ; preds = %186
  call void (i32, ptr, ...) @mmfatal(i32 noundef 3, ptr noundef @.str.14) #9
  unreachable

192:                                              ; preds = %186
  br label %193

193:                                              ; preds = %192, %177, %140, %136, %120
  ret void
}