; Function Attrs: nounwind uwtable
define dso_local void @adjust_array(i32 noundef %0, ptr noundef captures(none) %1, ptr noundef captures(none) %2, ptr noundef %3, ptr noundef %4, i32 noundef %5, i1 noundef zeroext %6) local_unnamed_addr #0 {
  %8 = tail call i64 @strtol(ptr noundef nonnull captures(none) %4, ptr noundef null, i32 noundef 10) #6
  %9 = and i64 %8, 2147483648
  %10 = icmp eq i64 %9, 0
  br i1 %10, label %11, label %18

11:                                               ; preds = %7
  %12 = load ptr, ptr %2, align 8
  %13 = tail call i64 @strtol(ptr noundef nonnull captures(none) %12, ptr noundef null, i32 noundef 10) #6
  %14 = and i64 %13, 2147483648
  %15 = icmp eq i64 %14, 0
  br i1 %15, label %16, label %17

16:                                               ; preds = %11
  tail call void (i32, ptr, ...) @mmfatal(i32 noundef 3, ptr noundef nonnull @.str.7) #8
  unreachable

17:                                               ; preds = %11
  store ptr %4, ptr %2, align 8
  br label %18

18:                                               ; preds = %17, %7
  %19 = tail call i64 @strtol(ptr noundef nonnull captures(none) %3, ptr noundef null, i32 noundef 10) #6
  %20 = and i64 %19, 2147483648
  %21 = icmp eq i64 %20, 0
  br i1 %21, label %22, label %40

22:                                               ; preds = %18
  %23 = load ptr, ptr %1, align 8
  %24 = tail call i64 @strtol(ptr noundef nonnull captures(none) %23, ptr noundef null, i32 noundef 10) #6
  %25 = and i64 %24, 2147483648
  %26 = icmp eq i64 %25, 0
  br i1 %26, label %27, label %33

27:                                               ; preds = %22
  %28 = load ptr, ptr %2, align 8
  %29 = tail call i64 @strtol(ptr noundef nonnull captures(none) %28, ptr noundef null, i32 noundef 10) #6
  %30 = and i64 %29, 2147483648
  %31 = icmp eq i64 %30, 0
  br i1 %31, label %32, label %33

32:                                               ; preds = %27
  tail call void (i32, ptr, ...) @mmfatal(i32 noundef 3, ptr noundef nonnull @.str.7) #8
  unreachable

33:                                               ; preds = %27, %22
  %34 = load ptr, ptr %1, align 8
  %35 = tail call i64 @strtol(ptr noundef nonnull captures(none) %34, ptr noundef null, i32 noundef 10) #6
  %36 = and i64 %35, 2147483648
  %37 = icmp eq i64 %36, 0
  br i1 %37, label %38, label %39

38:                                               ; preds = %33
  store ptr %34, ptr %2, align 8
  br label %39

39:                                               ; preds = %38, %33
  store ptr %3, ptr %1, align 8
  br label %40

40:                                               ; preds = %39, %18
  %41 = icmp sgt i32 %5, 2
  br i1 %41, label %42, label %43

42:                                               ; preds = %40
  tail call void (i32, ptr, ...) @mmfatal(i32 noundef 3, ptr noundef nonnull @.str.9, i32 noundef %5) #8
  unreachable

43:                                               ; preds = %40
  %44 = icmp eq i32 %5, 2
  br i1 %44, label %switch.early.test, label %.critedge

switch.early.test:                                ; preds = %43
  switch i32 %0, label %45 [
    i32 30, label %46
    i32 2, label %46
    i32 1, label %46
  ]

45:                                               ; preds = %switch.early.test
  tail call void (i32, ptr, ...) @mmfatal(i32 noundef 3, ptr noundef nonnull @.str.10) #8
  unreachable

46:                                               ; preds = %switch.early.test, %switch.early.test, %switch.early.test
  %47 = load ptr, ptr %2, align 8
  %48 = tail call i64 @strtol(ptr noundef nonnull captures(none) %47, ptr noundef null, i32 noundef 10) #6
  %49 = and i64 %48, 2147483648
  %50 = icmp eq i64 %49, 0
  br i1 %50, label %56, label %51

51:                                               ; preds = %46
  %52 = load ptr, ptr %1, align 8
  %53 = tail call i64 @strtol(ptr noundef nonnull captures(none) %52, ptr noundef null, i32 noundef 10) #6
  %54 = and i64 %53, 2147483648
  %55 = icmp eq i64 %54, 0
  br i1 %55, label %56, label %.critedge

56:                                               ; preds = %51, %46
  tail call void (i32, ptr, ...) @mmfatal(i32 noundef 3, ptr noundef nonnull @.str.7) #8
  unreachable

.critedge:                                        ; preds = %43, %51
  %57 = load ptr, ptr %2, align 8
  %58 = tail call i64 @strtol(ptr noundef nonnull captures(none) %57, ptr noundef null, i32 noundef 10) #6
  %59 = and i64 %58, 2147483648
  %60 = icmp eq i64 %59, 0
  br i1 %60, label %61, label %68

61:                                               ; preds = %.critedge
  %62 = load ptr, ptr %1, align 8
  %63 = tail call i64 @strtol(ptr noundef nonnull captures(none) %62, ptr noundef null, i32 noundef 10) #6
  %64 = and i64 %63, 2147483648
  %65 = icmp eq i64 %64, 0
  %66 = icmp ne i32 %5, 0
  %or.cond7 = and i1 %66, %65
  br i1 %or.cond7, label %67, label %68

67:                                               ; preds = %61
  tail call void (i32, ptr, ...) @mmfatal(i32 noundef 3, ptr noundef nonnull @.str.7) #8
  unreachable

68:                                               ; preds = %61, %.critedge
  switch i32 %0, label %103 [
    i32 22, label %69
    i32 23, label %69
    i32 14, label %78
    i32 32, label %78
    i32 1, label %86
    i32 2, label %86
    i32 30, label %86
  ]

69:                                               ; preds = %68, %68
  %.not62 = icmp eq i32 %5, 0
  br i1 %.not62, label %72, label %70

70:                                               ; preds = %69
  %71 = load ptr, ptr %1, align 8
  store ptr %71, ptr %2, align 8
  store ptr @.str.4, ptr %1, align 8
  br label %72

72:                                               ; preds = %70, %69
  %73 = load ptr, ptr %2, align 8
  %74 = tail call i64 @strtol(ptr noundef nonnull captures(none) %73, ptr noundef null, i32 noundef 10) #6
  %75 = and i64 %74, 2147483648
  %76 = icmp eq i64 %75, 0
  br i1 %76, label %77, label %112

77:                                               ; preds = %72
  tail call void (i32, ptr, ...) @mmfatal(i32 noundef 3, ptr noundef nonnull @.str.11) #8
  unreachable

78:                                               ; preds = %68, %68
  %.not = icmp eq i32 %5, 0
  br i1 %.not, label %80, label %79

79:                                               ; preds = %78
  store ptr @.str.4, ptr %1, align 8
  br label %80

80:                                               ; preds = %79, %78
  %81 = load ptr, ptr %2, align 8
  %82 = tail call i64 @strtol(ptr noundef nonnull captures(none) %81, ptr noundef null, i32 noundef 10) #6
  %83 = and i64 %82, 2147483648
  %.not67 = icmp eq i64 %83, 0
  br i1 %.not67, label %112, label %84

84:                                               ; preds = %80
  %85 = load ptr, ptr %1, align 8
  store ptr %85, ptr %2, align 8
  store ptr @.str.12, ptr %1, align 8
  br label %112

86:                                               ; preds = %68, %68, %68
  switch i32 %5, label %._crit_edge [
    i32 2, label %87
    i32 1, label %88
  ]

._crit_edge:                                      ; preds = %86
  %.pre = load ptr, ptr %2, align 8
  br label %89

87:                                               ; preds = %86
  store ptr @.str.4, ptr %1, align 8
  store ptr @.str.4, ptr %2, align 8
  br label %112

88:                                               ; preds = %86
  store ptr @.str.4, ptr %2, align 8
  br label %89

89:                                               ; preds = %._crit_edge, %88
  %90 = phi ptr [ %.pre, %._crit_edge ], [ @.str.4, %88 ]
  %91 = tail call i64 @strtol(ptr noundef nonnull captures(none) %90, ptr noundef null, i32 noundef 10) #6
  %92 = and i64 %91, 2147483648
  %.not65 = icmp eq i64 %92, 0
  br i1 %.not65, label %112, label %93

93:                                               ; preds = %89
  %94 = load ptr, ptr %1, align 8
  %95 = tail call i64 @strtol(ptr noundef nonnull captures(none) %94, ptr noundef null, i32 noundef 10) #6
  %96 = and i64 %95, 2147483648
  %.not66 = icmp eq i64 %96, 0
  %brmerge = or i1 %6, %.not66
  br i1 %brmerge, label %sub_0, label %102

sub_0:                                            ; preds = %93
  %97 = load ptr, ptr %1, align 8
  %98 = load i8, ptr %97, align 1
  %.not68 = icmp eq i8 %98, 48
  br i1 %.not68, label %.tail, label %.tail.thread

.tail:                                            ; preds = %sub_0
  %99 = getelementptr inbounds nuw i8, ptr %97, i64 1
  %100 = load i8, ptr %99, align 1
  %101 = icmp eq i8 %100, 0
  br i1 %101, label %102, label %.tail.thread

.tail.thread:                                     ; preds = %sub_0, %.tail
  br label %102

102:                                              ; preds = %.tail, %93, %.tail.thread
  %.str.12.sink = phi ptr [ %97, %.tail.thread ], [ @.str.13, %93 ], [ @.str.12, %.tail ]
  store ptr %.str.12.sink, ptr %2, align 8
  store ptr @.str.12, ptr %1, align 8
  br label %112

103:                                              ; preds = %68
  %.not63 = icmp eq i32 %5, 0
  br i1 %.not63, label %106, label %104

104:                                              ; preds = %103
  %105 = load ptr, ptr %1, align 8
  store ptr %105, ptr %2, align 8
  store ptr @.str.4, ptr %1, align 8
  br label %106

106:                                              ; preds = %104, %103
  %107 = load ptr, ptr %2, align 8
  %108 = tail call i64 @strtol(ptr noundef nonnull captures(none) %107, ptr noundef null, i32 noundef 10) #6
  %109 = and i64 %108, 2147483648
  %110 = icmp eq i64 %109, 0
  br i1 %110, label %111, label %112

111:                                              ; preds = %106
  tail call void (i32, ptr, ...) @mmfatal(i32 noundef 3, ptr noundef nonnull @.str.14) #8
  unreachable

112:                                              ; preds = %106, %89, %102, %80, %84, %72, %87
  ret void
}